target datalayout = "e-m:e-p270:32:32-p271:32:32-p272:64:64-i64:64-i128:128-f80:128-n8:16:32:64-S128"
target triple = "x86_64-pc-linux-gnu"

; Function Attrs: nounwind uwtable
define internal void @delete_timer_event_cb(ptr noundef %0) #0 {
  %2 = alloca ptr, align 8
  %3 = alloca i32, align 4
  %4 = alloca ptr, align 8
  store ptr %0, ptr %2, align 8, !tbaa !7
  call void @llvm.lifetime.start.p0(i64 4, ptr %3) #5
  %5 = load ptr, ptr %2, align 8, !tbaa !7
  %6 = call i32 @lv_event_get_code(ptr noundef %5)
  store i32 %6, ptr %3, align 4, !tbaa !3
  %7 = load i32, ptr %3, align 4, !tbaa !3
  %8 = icmp eq i32 %7, 41
  br i1 %8, label %9, label %17

9:                                                ; preds = %1
  call void @llvm.lifetime.start.p0(i64 8, ptr %4) #5
  %10 = load ptr, ptr %2, align 8, !tbaa !7
  %11 = call ptr @lv_event_get_user_data(ptr noundef %10)
  store ptr %11, ptr %4, align 8, !tbaa !7
  %12 = load ptr, ptr %4, align 8, !tbaa !7
  %13 = icmp ne ptr %12, null
  br i1 %13, label %14, label %16

14:                                               ; preds = %9
  %15 = load ptr, ptr %4, align 8, !tbaa !7
  call void @lv_timer_delete(ptr noundef %15)
  br label %16

16:                                               ; preds = %14, %9
  call void @llvm.lifetime.end.p0(i64 8, ptr %4) #5
  br label %17

17:                                               ; preds = %16, %1
  call void @llvm.lifetime.end.p0(i64 4, ptr %3) #5
  ret void
}