; Function Attrs: nounwind uwtable
define internal void @delete_timer_event_cb(ptr noundef %0) #0 {
  %2 = tail call i32 @lv_event_get_code(ptr noundef %0) #5
  %3 = icmp eq i32 %2, 41
  br i1 %3, label %4, label %7

4:                                                ; preds = %1
  %5 = tail call ptr @lv_event_get_user_data(ptr noundef %0) #5
  %.not = icmp eq ptr %5, null
  br i1 %.not, label %7, label %6

6:                                                ; preds = %4
  tail call void @lv_timer_delete(ptr noundef nonnull %5) #5
  br label %7

7:                                                ; preds = %4, %6, %1
  ret void
}